target datalayout = "e-m:e-p270:32:32-p271:32:32-p272:64:64-i64:64-i128:128-f80:128-n8:16:32:64-S128"
target triple = "x86_64-pc-linux-gnu"

%struct._tocEntry = type { ptr, ptr, %struct.CatalogId, i32, i32, i8, ptr, ptr, ptr, ptr, i8, ptr, ptr, ptr, ptr, ptr, ptr, i32, ptr, ptr, ptr, i64, i32, i8, ptr, ptr, i32, ptr, i32, ptr, i32 }
%struct.CatalogId = type { i32, i32 }

; Function Attrs: nounwind uwtable
define internal i32 @TocEntrySizeCompareQsort(ptr noundef %0, ptr noundef %1) #0 {
  %3 = alloca i32, align 4
  %4 = alloca ptr, align 8
  %5 = alloca ptr, align 8
  %6 = alloca ptr, align 8
  %7 = alloca ptr, align 8
  %8 = alloca i32, align 4
  store ptr %0, ptr %4, align 8
  store ptr %1, ptr %5, align 8
  call void @llvm.lifetime.start.p0(i64 8, ptr %6) #11
  %9 = load ptr, ptr %4, align 8
  %10 = load ptr, ptr %9, align 8
  store ptr %10, ptr %6, align 8
  call void @llvm.lifetime.start.p0(i64 8, ptr %7) #11
  %11 = load ptr, ptr %5, align 8
  %12 = load ptr, ptr %11, align 8
  store ptr %12, ptr %7, align 8
  %13 = load ptr, ptr %6, align 8
  %14 = getelementptr inbounds nuw %struct._tocEntry, ptr %13, i32 0, i32 21
  %15 = load i64, ptr %14, align 8
  %16 = load ptr, ptr %7, align 8
  %17 = getelementptr inbounds nuw %struct._tocEntry, ptr %16, i32 0, i32 21
  %18 = load i64, ptr %17, align 8
  %19 = icmp sgt i64 %15, %18
  br i1 %19, label %20, label %21

20:                                               ; preds = %2
  store i32 -1, ptr %3, align 4
  store i32 1, ptr %8, align 4
  br label %49

21:                                               ; preds = %2
  %22 = load ptr, ptr %6, align 8
  %23 = getelementptr inbounds nuw %struct._tocEntry, ptr %22, i32 0, i32 21
  %24 = load i64, ptr %23, align 8
  %25 = load ptr, ptr %7, align 8
  %26 = getelementptr inbounds nuw %struct._tocEntry, ptr %25, i32 0, i32 21
  %27 = load i64, ptr %26, align 8
  %28 = icmp slt i64 %24, %27
  br i1 %28, label %29, label %30

29:                                               ; preds = %21
  store i32 1, ptr %3, align 4
  store i32 1, ptr %8, align 4
  br label %49

30:                                               ; preds = %21
  %31 = load ptr, ptr %6, align 8
  %32 = getelementptr inbounds nuw %struct._tocEntry, ptr %31, i32 0, i32 3
  %33 = load i32, ptr %32, align 8
  %34 = load ptr, ptr %7, align 8
  %35 = getelementptr inbounds nuw %struct._tocEntry, ptr %34, i32 0, i32 3
  %36 = load i32, ptr %35, align 8
  %37 = icmp slt i32 %33, %36
  br i1 %37, label %38, label %39

38:                                               ; preds = %30
  store i32 -1, ptr %3, align 4
  store i32 1, ptr %8, align 4
  br label %49

39:                                               ; preds = %30
  %40 = load ptr, ptr %6, align 8
  %41 = getelementptr inbounds nuw %struct._tocEntry, ptr %40, i32 0, i32 3
  %42 = load i32, ptr %41, align 8
  %43 = load ptr, ptr %7, align 8
  %44 = getelementptr inbounds nuw %struct._tocEntry, ptr %43, i32 0, i32 3
  %45 = load i32, ptr %44, align 8
  %46 = icmp sgt i32 %42, %45
  br i1 %46, label %47, label %48

47:                                               ; preds = %39
  store i32 1, ptr %3, align 4
  store i32 1, ptr %8, align 4
  br label %49

48:                                               ; preds = %39
  store i32 0, ptr %3, align 4
  store i32 1, ptr %8, align 4
  br label %49

49:                                               ; preds = %48, %47, %38, %29, %20
  call void @llvm.lifetime.end.p0(i64 8, ptr %7) #11
  call void @llvm.lifetime.end.p0(i64 8, ptr %6) #11
  %50 = load i32, ptr %3, align 4
  ret i32 %50
}

; Function Attrs: nounwind uwtable
define internal i32 @TocEntrySizeCompareBinaryheap(ptr noundef %0, ptr noundef %1, ptr noundef %2) #0 {
  %4 = alloca ptr, align 8
  %5 = alloca ptr, align 8
  %6 = alloca ptr, align 8
  store ptr %0, ptr %4, align 8
  store ptr %1, ptr %5, align 8
  store ptr %2, ptr %6, align 8
  %7 = call i32 @TocEntrySizeCompareQsort(ptr noundef %4, ptr noundef %5)
  %8 = sub i32 0, %7
  ret i32 %8
}