; Function Attrs: mustprogress nofree norecurse nosync nounwind willreturn memory(argmem: read) uwtable
define internal range(i32 -1, 2) i32 @TocEntrySizeCompareBinaryheap(ptr noundef readonly captures(none) %0, ptr noundef readonly captures(none) %1, ptr readnone captures(none) %2) #18 {
  %4 = getelementptr inbounds nuw i8, ptr %0, i64 160
  %5 = load i64, ptr %4, align 8
  %6 = getelementptr inbounds nuw i8, ptr %1, i64 160
  %7 = load i64, ptr %6, align 8
  %8 = icmp sgt i64 %5, %7
  br i1 %8, label %TocEntrySizeCompareQsort.exit, label %9

9:                                                ; preds = %3
  %10 = icmp slt i64 %5, %7
  br i1 %10, label %TocEntrySizeCompareQsort.exit, label %11

11:                                               ; preds = %9
  %12 = getelementptr inbounds nuw i8, ptr %0, i64 24
  %13 = load i32, ptr %12, align 8
  %14 = getelementptr inbounds nuw i8, ptr %1, i64 24
  %15 = load i32, ptr %14, align 8
  %16 = icmp slt i32 %13, %15
  br i1 %16, label %TocEntrySizeCompareQsort.exit, label %17

17:                                               ; preds = %11
  %18 = icmp sgt i32 %13, %15
  %..i.neg = sext i1 %18 to i32
  br label %TocEntrySizeCompareQsort.exit

TocEntrySizeCompareQsort.exit:                    ; preds = %3, %9, %11, %17
  %.0.i.neg = phi i32 [ 1, %3 ], [ -1, %9 ], [ 1, %11 ], [ %..i.neg, %17 ]
  ret i32 %.0.i.neg
}